target datalayout = "e-m:e-p270:32:32-p271:32:32-p272:64:64-i64:64-i128:128-f80:128-n8:16:32:64-S128"
target triple = "x86_64-pc-linux-gnu"

%struct.ossl_property_definition_st = type { i32, i32, i32, i8, %union.anon }
%union.anon = type { i64 }
%struct.ossl_property_list_st = type { i32, i8, [1 x %struct.ossl_property_definition_st] }

@.str = private unnamed_addr constant [44 x i8] c"../openssl/crypto/property/property_parse.c\00", align 1
@__func__.stack_to_property_list = private unnamed_addr constant [23 x i8] c"stack_to_property_list\00", align 1
@.str.15 = private unnamed_addr constant [21 x i8] c"Duplicated name `%s'\00", align 1

; Function Attrs: inlinehint nounwind uwtable
define internal ptr @sk_OSSL_PROPERTY_DEFINITION_value(ptr noundef %0, i32 noundef %1) #2 {
  %3 = alloca ptr, align 8
  %4 = alloca i32, align 4
  store ptr %0, ptr %3, align 8, !tbaa !14
  store i32 %1, ptr %4, align 4, !tbaa !17
  %5 = load ptr, ptr %3, align 8, !tbaa !14
  %6 = load i32, ptr %4, align 4, !tbaa !17
  %7 = call ptr @OPENSSL_sk_value(ptr noundef %5, i32 noundef %6)
  ret ptr %7
}

; Function Attrs: inlinehint nounwind uwtable
define internal void @sk_OSSL_PROPERTY_DEFINITION_sort(ptr noundef %0) #2 {
  %2 = alloca ptr, align 8
  store ptr %0, ptr %2, align 8, !tbaa !14
  %3 = load ptr, ptr %2, align 8, !tbaa !14
  call void @OPENSSL_sk_sort(ptr noundef %3)
  ret void
}

; Function Attrs: inlinehint nounwind uwtable
define internal i32 @sk_OSSL_PROPERTY_DEFINITION_num(ptr noundef %0) #2 {
  %2 = alloca ptr, align 8
  store ptr %0, ptr %2, align 8, !tbaa !14
  %3 = load ptr, ptr %2, align 8, !tbaa !14
  %4 = call i32 @OPENSSL_sk_num(ptr noundef %3)
  ret i32 %4
}

; Function Attrs: nounwind uwtable
define internal ptr @stack_to_property_list(ptr noundef %0, ptr noundef %1) #0 {
  %3 = alloca ptr, align 8
  %4 = alloca ptr, align 8
  %5 = alloca ptr, align 8
  %6 = alloca i32, align 4
  %7 = alloca ptr, align 8
  %8 = alloca i32, align 4
  %9 = alloca i32, align 4
  %10 = alloca i32, align 4
  store ptr %0, ptr %4, align 8, !tbaa !3
  store ptr %1, ptr %5, align 8, !tbaa !14
  call void @llvm.lifetime.start.p0(i64 4, ptr %6) #7
  %11 = load ptr, ptr %5, align 8, !tbaa !14
  %12 = call i32 @sk_OSSL_PROPERTY_DEFINITION_num(ptr noundef %11)
  store i32 %12, ptr %6, align 4, !tbaa !17
  call void @llvm.lifetime.start.p0(i64 8, ptr %7) #7
  call void @llvm.lifetime.start.p0(i64 4, ptr %8) #7
  store i32 0, ptr %8, align 4, !tbaa !17
  call void @llvm.lifetime.start.p0(i64 4, ptr %9) #7
  %13 = load i32, ptr %6, align 4, !tbaa !17
  %14 = icmp sle i32 %13, 0
  br i1 %14, label %15, label %16

15:                                               ; preds = %2
  br label %19

16:                                               ; preds = %2
  %17 = load i32, ptr %6, align 4, !tbaa !17
  %18 = sub nsw i32 %17, 1
  br label %19

19:                                               ; preds = %16, %15
  %20 = phi i32 [ 0, %15 ], [ %18, %16 ]
  %21 = sext i32 %20 to i64
  %22 = mul i64 %21, 24
  %23 = add i64 32, %22
  %24 = call noalias ptr @CRYPTO_malloc(i64 noundef %23, ptr noundef @.str, i32 noundef 321)
  store ptr %24, ptr %7, align 8, !tbaa !12
  %25 = load ptr, ptr %7, align 8, !tbaa !12
  %26 = icmp ne ptr %25, null
  br i1 %26, label %27, label %99

27:                                               ; preds = %19
  %28 = load ptr, ptr %5, align 8, !tbaa !14
  call void @sk_OSSL_PROPERTY_DEFINITION_sort(ptr noundef %28)
  %29 = load ptr, ptr %7, align 8, !tbaa !12
  %30 = getelementptr inbounds nuw %struct.ossl_property_list_st, ptr %29, i32 0, i32 1
  %31 = load i8, ptr %30, align 4
  %32 = and i8 %31, -2
  %33 = or i8 %32, 0
  store i8 %33, ptr %30, align 4
  store i32 0, ptr %9, align 4, !tbaa !17
  br label %34

34:                                               ; preds = %92, %27
  %35 = load i32, ptr %9, align 4, !tbaa !17
  %36 = load i32, ptr %6, align 4, !tbaa !17
  %37 = icmp slt i32 %35, %36
  br i1 %37, label %38, label %95

38:                                               ; preds = %34
  %39 = load ptr, ptr %7, align 8, !tbaa !12
  %40 = getelementptr inbounds nuw %struct.ossl_property_list_st, ptr %39, i32 0, i32 2
  %41 = load i32, ptr %9, align 4, !tbaa !17
  %42 = sext i32 %41 to i64
  %43 = getelementptr inbounds [1 x %struct.ossl_property_definition_st], ptr %40, i64 0, i64 %42
  %44 = load ptr, ptr %5, align 8, !tbaa !14
  %45 = load i32, ptr %9, align 4, !tbaa !17
  %46 = call ptr @sk_OSSL_PROPERTY_DEFINITION_value(ptr noundef %44, i32 noundef %45)
  call void @llvm.memcpy.p0.p0.i64(ptr align 8 %43, ptr align 8 %46, i64 24, i1 false), !tbaa.struct !36
  %47 = load ptr, ptr %7, align 8, !tbaa !12
  %48 = getelementptr inbounds nuw %struct.ossl_property_list_st, ptr %47, i32 0, i32 2
  %49 = load i32, ptr %9, align 4, !tbaa !17
  %50 = sext i32 %49 to i64
  %51 = getelementptr inbounds [1 x %struct.ossl_property_definition_st], ptr %48, i64 0, i64 %50
  %52 = getelementptr inbounds nuw %struct.ossl_property_definition_st, ptr %51, i32 0, i32 3
  %53 = load i8, ptr %52, align 4
  %54 = and i8 %53, 1
  %55 = zext i8 %54 to i32
  %56 = load ptr, ptr %7, align 8, !tbaa !12
  %57 = getelementptr inbounds nuw %struct.ossl_property_list_st, ptr %56, i32 0, i32 1
  %58 = load i8, ptr %57, align 4
  %59 = and i8 %58, 1
  %60 = zext i8 %59 to i32
  %61 = or i32 %60, %55
  %62 = trunc i32 %61 to i8
  %63 = load i8, ptr %57, align 4
  %64 = and i8 %62, 1
  %65 = and i8 %63, -2
  %66 = or i8 %65, %64
  store i8 %66, ptr %57, align 4
  %67 = load i32, ptr %9, align 4, !tbaa !17
  %68 = icmp sgt i32 %67, 0
  br i1 %68, label %69, label %84

69:                                               ; preds = %38
  %70 = load ptr, ptr %7, align 8, !tbaa !12
  %71 = getelementptr inbounds nuw %struct.ossl_property_list_st, ptr %70, i32 0, i32 2
  %72 = load i32, ptr %9, align 4, !tbaa !17
  %73 = sext i32 %72 to i64
  %74 = getelementptr inbounds [1 x %struct.ossl_property_definition_st], ptr %71, i64 0, i64 %73
  %75 = getelementptr inbounds nuw %struct.ossl_property_definition_st, ptr %74, i32 0, i32 0
  %76 = load i32, ptr %75, align 8, !tbaa !21
  %77 = load i32, ptr %8, align 4, !tbaa !17
  %78 = icmp eq i32 %76, %77
  br i1 %78, label %79, label %84

79:                                               ; preds = %69
  %80 = load ptr, ptr %7, align 8, !tbaa !12
  call void @CRYPTO_free(ptr noundef %80, ptr noundef @.str, i32 noundef 332)
  call void @ERR_new()
  call void @ERR_set_debug(ptr noundef @.str, i32 noundef 333, ptr noundef @__func__.stack_to_property_list)
  %81 = load ptr, ptr %4, align 8, !tbaa !3
  %82 = load i32, ptr %8, align 4, !tbaa !17
  %83 = call ptr @ossl_property_name_str(ptr noundef %81, i32 noundef %82)
  call void (i32, i32, ptr, ...) @ERR_set_error(i32 noundef 55, i32 noundef 108, ptr noundef @.str.15, ptr noundef %83)
  store ptr null, ptr %3, align 8
  store i32 1, ptr %10, align 4
  br label %101

84:                                               ; preds = %69, %38
  %85 = load ptr, ptr %7, align 8, !tbaa !12
  %86 = getelementptr inbounds nuw %struct.ossl_property_list_st, ptr %85, i32 0, i32 2
  %87 = load i32, ptr %9, align 4, !tbaa !17
  %88 = sext i32 %87 to i64
  %89 = getelementptr inbounds [1 x %struct.ossl_property_definition_st], ptr %86, i64 0, i64 %88
  %90 = getelementptr inbounds nuw %struct.ossl_property_definition_st, ptr %89, i32 0, i32 0
  %91 = load i32, ptr %90, align 8, !tbaa !21
  store i32 %91, ptr %8, align 4, !tbaa !17
  br label %92

92:                                               ; preds = %84
  %93 = load i32, ptr %9, align 4, !tbaa !17
  %94 = add nsw i32 %93, 1
  store i32 %94, ptr %9, align 4, !tbaa !17
  br label %34, !llvm.loop !37

95:                                               ; preds = %34
  %96 = load i32, ptr %6, align 4, !tbaa !17
  %97 = load ptr, ptr %7, align 8, !tbaa !12
  %98 = getelementptr inbounds nuw %struct.ossl_property_list_st, ptr %97, i32 0, i32 0
  store i32 %96, ptr %98, align 8, !tbaa !38
  br label %99

99:                                               ; preds = %95, %19
  %100 = load ptr, ptr %7, align 8, !tbaa !12
  store ptr %100, ptr %3, align 8
  store i32 1, ptr %10, align 4
  br label %101

101:                                              ; preds = %99, %79
  call void @llvm.lifetime.end.p0(i64 4, ptr %9) #7
  call void @llvm.lifetime.end.p0(i64 4, ptr %8) #7
  call void @llvm.lifetime.end.p0(i64 8, ptr %7) #7
  call void @llvm.lifetime.end.p0(i64 4, ptr %6) #7
  %102 = load ptr, ptr %3, align 8
  ret ptr %102
}