; Function Attrs: nounwind uwtable
define internal fastcc ptr @stack_to_property_list(ptr noundef %0, ptr noundef nonnull %1) unnamed_addr #0 {
  %3 = tail call i32 @OPENSSL_sk_num(ptr noundef nonnull %1) #9
  %4 = tail call i32 @llvm.smax.i32(i32 %3, i32 1)
  %5 = add nsw i32 %4, -1
  %6 = zext nneg i32 %5 to i64
  %7 = mul nuw nsw i64 %6, 24
  %8 = add nuw nsw i64 %7, 32
  %9 = tail call noalias ptr @CRYPTO_malloc(i64 noundef %8, ptr noundef nonnull @.str, i32 noundef 321) #9
  %.not = icmp eq ptr %9, null
  br i1 %.not, label %29, label %10

10:                                               ; preds = %2
  tail call void @OPENSSL_sk_sort(ptr noundef nonnull %1) #9
  %11 = getelementptr inbounds nuw i8, ptr %9, i64 4
  %12 = load i8, ptr %11, align 4
  %13 = and i8 %12, -2
  store i8 %13, ptr %11, align 4
  %14 = icmp sgt i32 %3, 0
  br i1 %14, label %.lr.ph, label %._crit_edge

.lr.ph:                                           ; preds = %10
  %15 = getelementptr inbounds nuw i8, ptr %9, i64 8
  %wide.trip.count = zext nneg i32 %3 to i64
  br label %16

16:                                               ; preds = %.lr.ph, %28
  %17 = phi i8 [ %13, %.lr.ph ], [ %24, %28 ]
  %indvars.iv = phi i64 [ 0, %.lr.ph ], [ %indvars.iv.next, %28 ]
  %.02834 = phi i32 [ 0, %.lr.ph ], [ %.pre, %28 ]
  %18 = getelementptr inbounds nuw [1 x %struct.ossl_property_definition_st], ptr %15, i64 0, i64 %indvars.iv
  %19 = trunc nuw nsw i64 %indvars.iv to i32
  %20 = tail call ptr @OPENSSL_sk_value(ptr noundef nonnull %1, i32 noundef %19) #9
  tail call void @llvm.memcpy.p0.p0.i64(ptr noundef nonnull align 8 dereferenceable(24) %18, ptr noundef nonnull align 8 dereferenceable(24) %20, i64 24, i1 false), !tbaa.struct !23
  %21 = getelementptr inbounds nuw i8, ptr %18, i64 12
  %22 = load i8, ptr %21, align 4
  %23 = and i8 %22, 1
  %24 = or i8 %23, %17
  store i8 %24, ptr %11, align 4
  %.not32 = icmp ne i64 %indvars.iv, 0
  %.pre = load i32, ptr %18, align 8, !tbaa !14
  %25 = icmp eq i32 %.pre, %.02834
  %or.cond = select i1 %.not32, i1 %25, i1 false
  br i1 %or.cond, label %26, label %28

26:                                               ; preds = %16
  tail call void @CRYPTO_free(ptr noundef nonnull %9, ptr noundef nonnull @.str, i32 noundef 332) #9
  tail call void @ERR_new() #9
  tail call void @ERR_set_debug(ptr noundef nonnull @.str, i32 noundef 333, ptr noundef nonnull @__func__.stack_to_property_list) #9
  %27 = tail call ptr @ossl_property_name_str(ptr noundef %0, i32 noundef %.02834) #9
  tail call void (i32, i32, ptr, ...) @ERR_set_error(i32 noundef 55, i32 noundef 108, ptr noundef nonnull @.str.15, ptr noundef %27) #9
  br label %29

28:                                               ; preds = %16
  %indvars.iv.next = add nuw nsw i64 %indvars.iv, 1
  %exitcond.not = icmp eq i64 %indvars.iv.next, %wide.trip.count
  br i1 %exitcond.not, label %._crit_edge, label %16, !llvm.loop !24

._crit_edge:                                      ; preds = %28, %10
  store i32 %3, ptr %9, align 8, !tbaa !25
  br label %29

29:                                               ; preds = %2, %._crit_edge, %26
  %.029 = phi ptr [ null, %26 ], [ %9, %._crit_edge ], [ null, %2 ]
  ret ptr %.029
}